target datalayout = "e-m:e-p270:32:32-p271:32:32-p272:64:64-i64:64-i128:128-f80:128-n8:16:32:64-S128"
target triple = "x86_64-pc-linux-gnu"

%"class.base::BasicStringPiece.0" = type { ptr, i64 }
%"struct.base::CaseInsensitiveCompareASCII.26" = type { i8 }

; Function Attrs: inlinehint mustprogress nounwind uwtable
define linkonce_odr noundef zeroext i16 @_ZN4base12ToLowerASCIIEt(i16 noundef zeroext %0) #7 comdat {
  %2 = alloca i16, align 2
  store i16 %0, ptr %2, align 2, !tbaa !31
  %3 = load i16, ptr %2, align 2, !tbaa !31
  %4 = zext i16 %3 to i32
  %5 = icmp sge i32 %4, 65
  br i1 %5, label %6, label %14

6:                                                ; preds = %1
  %7 = load i16, ptr %2, align 2, !tbaa !31
  %8 = zext i16 %7 to i32
  %9 = icmp sle i32 %8, 90
  br i1 %9, label %10, label %14

10:                                               ; preds = %6
  %11 = load i16, ptr %2, align 2, !tbaa !31
  %12 = zext i16 %11 to i32
  %13 = add nsw i32 %12, 32
  br label %17

14:                                               ; preds = %6, %1
  %15 = load i16, ptr %2, align 2, !tbaa !31
  %16 = zext i16 %15 to i32
  br label %17

17:                                               ; preds = %14, %10
  %18 = phi i32 [ %13, %10 ], [ %16, %14 ]
  %19 = trunc i32 %18 to i16
  ret i16 %19
}

; Function Attrs: mustprogress uwtable
define linkonce_odr noundef i32 @_ZN4base20string16_char_traits7compareEPKtS2_m(ptr noundef %0, ptr noundef %1, i64 noundef %2) #3 comdat align 2 {
  %4 = alloca ptr, align 8
  %5 = alloca ptr, align 8
  %6 = alloca i64, align 8
  store ptr %0, ptr %4, align 8, !tbaa !24
  store ptr %1, ptr %5, align 8, !tbaa !24
  store i64 %2, ptr %6, align 8, !tbaa !20
  %7 = load ptr, ptr %4, align 8, !tbaa !24
  %8 = load ptr, ptr %5, align 8, !tbaa !24
  %9 = load i64, ptr %6, align 8, !tbaa !20
  %10 = call noundef i32 @_ZN4base9c16memcmpEPKtS1_m(ptr noundef %7, ptr noundef %8, i64 noundef %9)
  ret i32 %10
}

; Function Attrs: mustprogress nounwind uwtable
define linkonce_odr noundef zeroext i1 @_ZNK4base27CaseInsensitiveCompareASCIIItEclEtt(ptr noundef nonnull align 1 dereferenceable(1) %0, i16 noundef zeroext %1, i16 noundef zeroext %2) #0 comdat align 2 {
  %4 = alloca ptr, align 8
  %5 = alloca i16, align 2
  %6 = alloca i16, align 2
  store ptr %0, ptr %4, align 8, !tbaa !203
  store i16 %1, ptr %5, align 2, !tbaa !31
  store i16 %2, ptr %6, align 2, !tbaa !31
  %7 = load i16, ptr %5, align 2, !tbaa !31
  %8 = call noundef zeroext i16 @_ZN4base12ToLowerASCIIEt(i16 noundef zeroext %7)
  %9 = zext i16 %8 to i32
  %10 = load i16, ptr %6, align 2, !tbaa !31
  %11 = call noundef zeroext i16 @_ZN4base12ToLowerASCIIEt(i16 noundef zeroext %10)
  %12 = zext i16 %11 to i32
  %13 = icmp eq i32 %9, %12
  ret i1 %13
}

; Function Attrs: mustprogress uwtable
define available_externally noundef i32 @_ZN4base16BasicStringPieceINSt7__cxx1112basic_stringItNS_20string16_char_traitsESaItEEEE10wordmemcmpEPKtS8_m(ptr noundef %0, ptr noundef %1, i64 noundef %2) #3 align 2 {
  %4 = alloca ptr, align 8
  %5 = alloca ptr, align 8
  %6 = alloca i64, align 8
  store ptr %0, ptr %4, align 8, !tbaa !24
  store ptr %1, ptr %5, align 8, !tbaa !24
  store i64 %2, ptr %6, align 8, !tbaa !20
  %7 = load ptr, ptr %4, align 8, !tbaa !24
  %8 = load ptr, ptr %5, align 8, !tbaa !24
  %9 = load i64, ptr %6, align 8, !tbaa !20
  %10 = call noundef i32 @_ZN4base20string16_char_traits7compareEPKtS2_m(ptr noundef %7, ptr noundef %8, i64 noundef %9)
  ret i32 %10
}

; Function Attrs: mustprogress nounwind uwtable
define available_externally noundef ptr @_ZNK4base16BasicStringPieceINSt7__cxx1112basic_stringItNS_20string16_char_traitsESaItEEEE4dataEv(ptr noundef nonnull align 8 dereferenceable(16) %0) #0 align 2 {
  %2 = alloca ptr, align 8
  store ptr %0, ptr %2, align 8, !tbaa !38
  %3 = load ptr, ptr %2, align 8
  %4 = getelementptr inbounds nuw %"class.base::BasicStringPiece.0", ptr %3, i32 0, i32 0
  %5 = load ptr, ptr %4, align 8, !tbaa !48
  ret ptr %5
}

; Function Attrs: inlinehint mustprogress uwtable
define linkonce_odr noundef zeroext i1 @_ZSt5equalIPKtS1_N4base27CaseInsensitiveCompareASCIIItEEEbT_S5_T0_T1_(ptr noundef %0, ptr noundef %1, ptr noundef %2) #8 comdat {
  %4 = alloca i1, align 1
  %5 = alloca %"struct.base::CaseInsensitiveCompareASCII.26", align 1
  %6 = alloca ptr, align 8
  %7 = alloca ptr, align 8
  %8 = alloca ptr, align 8
  store ptr %0, ptr %6, align 8, !tbaa !24
  store ptr %1, ptr %7, align 8, !tbaa !24
  store ptr %2, ptr %8, align 8, !tbaa !24
  br label %9

9:                                                ; preds = %21, %3
  %10 = load ptr, ptr %6, align 8, !tbaa !24
  %11 = load ptr, ptr %7, align 8, !tbaa !24
  %12 = icmp ne ptr %10, %11
  br i1 %12, label %13, label %26

13:                                               ; preds = %9
  %14 = load ptr, ptr %6, align 8, !tbaa !24
  %15 = load i16, ptr %14, align 2, !tbaa !31
  %16 = load ptr, ptr %8, align 8, !tbaa !24
  %17 = load i16, ptr %16, align 2, !tbaa !31
  %18 = call noundef zeroext i1 @_ZNK4base27CaseInsensitiveCompareASCIIItEclEtt(ptr noundef nonnull align 1 dereferenceable(1) %5, i16 noundef zeroext %15, i16 noundef zeroext %17)
  br i1 %18, label %20, label %19

19:                                               ; preds = %13
  store i1 false, ptr %4, align 1
  br label %27

20:                                               ; preds = %13
  br label %21

21:                                               ; preds = %20
  %22 = load ptr, ptr %6, align 8, !tbaa !24
  %23 = getelementptr inbounds nuw i16, ptr %22, i32 1
  store ptr %23, ptr %6, align 8, !tbaa !24
  %24 = load ptr, ptr %8, align 8, !tbaa !24
  %25 = getelementptr inbounds nuw i16, ptr %24, i32 1
  store ptr %25, ptr %8, align 8, !tbaa !24
  br label %9, !llvm.loop !202

26:                                               ; preds = %9
  store i1 true, ptr %4, align 1
  br label %27

27:                                               ; preds = %26, %19
  %28 = load i1, ptr %4, align 1
  ret i1 %28
}

; Function Attrs: mustprogress nounwind uwtable
define available_externally noundef ptr @_ZNK4base16BasicStringPieceINSt7__cxx1112basic_stringItNS_20string16_char_traitsESaItEEEE3endEv(ptr noundef nonnull align 8 dereferenceable(16) %0) #0 align 2 {
  %2 = alloca ptr, align 8
  store ptr %0, ptr %2, align 8, !tbaa !38
  %3 = load ptr, ptr %2, align 8
  %4 = getelementptr inbounds nuw %"class.base::BasicStringPiece.0", ptr %3, i32 0, i32 0
  %5 = load ptr, ptr %4, align 8, !tbaa !48
  %6 = getelementptr inbounds nuw %"class.base::BasicStringPiece.0", ptr %3, i32 0, i32 1
  %7 = load i64, ptr %6, align 8, !tbaa !40
  %8 = getelementptr inbounds nuw i16, ptr %5, i64 %7
  ret ptr %8
}

; Function Attrs: mustprogress nounwind uwtable
define available_externally noundef ptr @_ZNK4base16BasicStringPieceINSt7__cxx1112basic_stringItNS_20string16_char_traitsESaItEEEE5beginEv(ptr noundef nonnull align 8 dereferenceable(16) %0) #0 align 2 {
  %2 = alloca ptr, align 8
  store ptr %0, ptr %2, align 8, !tbaa !38
  %3 = load ptr, ptr %2, align 8
  %4 = getelementptr inbounds nuw %"class.base::BasicStringPiece.0", ptr %3, i32 0, i32 0
  %5 = load ptr, ptr %4, align 8, !tbaa !48
  ret ptr %5
}

; Function Attrs: inlinehint mustprogress uwtable
define linkonce_odr noundef zeroext i1 @_ZN4baseeqERKNS_16BasicStringPieceINSt7__cxx1112basic_stringItNS_20string16_char_traitsESaItEEEEES8_(ptr noundef nonnull align 8 dereferenceable(16) %0, ptr noundef nonnull align 8 dereferenceable(16) %1) #8 comdat {
  %3 = alloca i1, align 1
  %4 = alloca ptr, align 8
  %5 = alloca ptr, align 8
  store ptr %0, ptr %4, align 8, !tbaa !38
  store ptr %1, ptr %5, align 8, !tbaa !38
  %6 = load ptr, ptr %4, align 8, !tbaa !38
  %7 = call noundef i64 @_ZNK4base16BasicStringPieceINSt7__cxx1112basic_stringItNS_20string16_char_traitsESaItEEEE4sizeEv(ptr noundef nonnull align 8 dereferenceable(16) %6)
  %8 = load ptr, ptr %5, align 8, !tbaa !38
  %9 = call noundef i64 @_ZNK4base16BasicStringPieceINSt7__cxx1112basic_stringItNS_20string16_char_traitsESaItEEEE4sizeEv(ptr noundef nonnull align 8 dereferenceable(16) %8)
  %10 = icmp ne i64 %7, %9
  br i1 %10, label %11, label %12

11:                                               ; preds = %2
  store i1 false, ptr %3, align 1
  br label %21

12:                                               ; preds = %2
  %13 = load ptr, ptr %4, align 8, !tbaa !38
  %14 = call noundef ptr @_ZNK4base16BasicStringPieceINSt7__cxx1112basic_stringItNS_20string16_char_traitsESaItEEEE4dataEv(ptr noundef nonnull align 8 dereferenceable(16) %13)
  %15 = load ptr, ptr %5, align 8, !tbaa !38
  %16 = call noundef ptr @_ZNK4base16BasicStringPieceINSt7__cxx1112basic_stringItNS_20string16_char_traitsESaItEEEE4dataEv(ptr noundef nonnull align 8 dereferenceable(16) %15)
  %17 = load ptr, ptr %4, align 8, !tbaa !38
  %18 = call noundef i64 @_ZNK4base16BasicStringPieceINSt7__cxx1112basic_stringItNS_20string16_char_traitsESaItEEEE4sizeEv(ptr noundef nonnull align 8 dereferenceable(16) %17)
  %19 = call noundef i32 @_ZN4base16BasicStringPieceINSt7__cxx1112basic_stringItNS_20string16_char_traitsESaItEEEE10wordmemcmpEPKtS8_m(ptr noundef %14, ptr noundef %16, i64 noundef %18)
  %20 = icmp eq i32 %19, 0
  store i1 %20, ptr %3, align 1
  br label %21

21:                                               ; preds = %12, %11
  %22 = load i1, ptr %3, align 1
  ret i1 %22
}

; Function Attrs: mustprogress uwtable
define available_externally { ptr, i64 } @_ZNK4base16BasicStringPieceINSt7__cxx1112basic_stringItNS_20string16_char_traitsESaItEEEE6substrEmm(ptr noundef nonnull align 8 dereferenceable(16) %0, i64 noundef %1, i64 noundef %2) #3 align 2 {
  %4 = alloca %"class.base::BasicStringPiece.0", align 8
  %5 = alloca ptr, align 8
  %6 = alloca i64, align 8
  %7 = alloca i64, align 8
  store ptr %0, ptr %5, align 8, !tbaa !38
  store i64 %1, ptr %6, align 8, !tbaa !20
  store i64 %2, ptr %7, align 8, !tbaa !20
  %8 = load ptr, ptr %5, align 8
  %9 = load i64, ptr %6, align 8, !tbaa !20
  %10 = load i64, ptr %7, align 8, !tbaa !20
  %11 = call { ptr, i64 } @_ZN4base8internal6substrERKNS_16BasicStringPieceINSt7__cxx1112basic_stringItNS_20string16_char_traitsESaItEEEEEmm(ptr noundef nonnull align 8 dereferenceable(16) %8, i64 noundef %9, i64 noundef %10)
  %12 = getelementptr inbounds nuw { ptr, i64 }, ptr %4, i32 0, i32 0
  %13 = extractvalue { ptr, i64 } %11, 0
  store ptr %13, ptr %12, align 8
  %14 = getelementptr inbounds nuw { ptr, i64 }, ptr %4, i32 0, i32 1
  %15 = extractvalue { ptr, i64 } %11, 1
  store i64 %15, ptr %14, align 8
  %16 = load { ptr, i64 }, ptr %4, align 8
  ret { ptr, i64 } %16
}

; Function Attrs: mustprogress nounwind uwtable
define available_externally noundef i64 @_ZNK4base16BasicStringPieceINSt7__cxx1112basic_stringItNS_20string16_char_traitsESaItEEEE4sizeEv(ptr noundef nonnull align 8 dereferenceable(16) %0) #0 align 2 {
  %2 = alloca ptr, align 8
  store ptr %0, ptr %2, align 8, !tbaa !38
  %3 = load ptr, ptr %2, align 8
  %4 = getelementptr inbounds nuw %"class.base::BasicStringPiece.0", ptr %3, i32 0, i32 1
  %5 = load i64, ptr %4, align 8, !tbaa !40
  ret i64 %5
}

; Function Attrs: mustprogress uwtable
define linkonce_odr noundef zeroext i1 @_ZN4base9EndsWithTINSt7__cxx1112basic_stringItNS_20string16_char_traitsESaItEEEEEbNS_16BasicStringPieceIT_EES8_NS_11CompareCaseE(ptr %0, i64 %1, ptr %2, i64 %3, i32 noundef %4) #3 comdat {
  %6 = alloca i1, align 1
  %7 = alloca %"class.base::BasicStringPiece.0", align 8
  %8 = alloca %"class.base::BasicStringPiece.0", align 8
  %9 = alloca i32, align 4
  %10 = alloca %"class.base::BasicStringPiece.0", align 8
  %11 = alloca i32, align 4
  %12 = getelementptr inbounds nuw { ptr, i64 }, ptr %7, i32 0, i32 0
  store ptr %0, ptr %12, align 8
  %13 = getelementptr inbounds nuw { ptr, i64 }, ptr %7, i32 0, i32 1
  store i64 %1, ptr %13, align 8
  %14 = getelementptr inbounds nuw { ptr, i64 }, ptr %8, i32 0, i32 0
  store ptr %2, ptr %14, align 8
  %15 = getelementptr inbounds nuw { ptr, i64 }, ptr %8, i32 0, i32 1
  store i64 %3, ptr %15, align 8
  store i32 %4, ptr %9, align 4, !tbaa !86
  %16 = call noundef i64 @_ZNK4base16BasicStringPieceINSt7__cxx1112basic_stringItNS_20string16_char_traitsESaItEEEE4sizeEv(ptr noundef nonnull align 8 dereferenceable(16) %8)
  %17 = call noundef i64 @_ZNK4base16BasicStringPieceINSt7__cxx1112basic_stringItNS_20string16_char_traitsESaItEEEE4sizeEv(ptr noundef nonnull align 8 dereferenceable(16) %7)
  %18 = icmp ugt i64 %16, %17
  br i1 %18, label %19, label %20

19:                                               ; preds = %5
  store i1 false, ptr %6, align 1
  br label %40

20:                                               ; preds = %5
  call void @llvm.lifetime.start.p0(i64 16, ptr %10) #17
  %21 = call noundef i64 @_ZNK4base16BasicStringPieceINSt7__cxx1112basic_stringItNS_20string16_char_traitsESaItEEEE4sizeEv(ptr noundef nonnull align 8 dereferenceable(16) %7)
  %22 = call noundef i64 @_ZNK4base16BasicStringPieceINSt7__cxx1112basic_stringItNS_20string16_char_traitsESaItEEEE4sizeEv(ptr noundef nonnull align 8 dereferenceable(16) %8)
  %23 = sub i64 %21, %22
  %24 = call noundef i64 @_ZNK4base16BasicStringPieceINSt7__cxx1112basic_stringItNS_20string16_char_traitsESaItEEEE4sizeEv(ptr noundef nonnull align 8 dereferenceable(16) %8)
  %25 = call { ptr, i64 } @_ZNK4base16BasicStringPieceINSt7__cxx1112basic_stringItNS_20string16_char_traitsESaItEEEE6substrEmm(ptr noundef nonnull align 8 dereferenceable(16) %7, i64 noundef %23, i64 noundef %24)
  %26 = getelementptr inbounds nuw { ptr, i64 }, ptr %10, i32 0, i32 0
  %27 = extractvalue { ptr, i64 } %25, 0
  store ptr %27, ptr %26, align 8
  %28 = getelementptr inbounds nuw { ptr, i64 }, ptr %10, i32 0, i32 1
  %29 = extractvalue { ptr, i64 } %25, 1
  store i64 %29, ptr %28, align 8
  %30 = load i32, ptr %9, align 4, !tbaa !86
  switch i32 %30, label %38 [
    i32 0, label %31
    i32 1, label %33
  ]

31:                                               ; preds = %20
  %32 = call noundef zeroext i1 @_ZN4baseeqERKNS_16BasicStringPieceINSt7__cxx1112basic_stringItNS_20string16_char_traitsESaItEEEEES8_(ptr noundef nonnull align 8 dereferenceable(16) %10, ptr noundef nonnull align 8 dereferenceable(16) %8)
  store i1 %32, ptr %6, align 1
  store i32 1, ptr %11, align 4
  br label %39

33:                                               ; preds = %20
  %34 = call noundef ptr @_ZNK4base16BasicStringPieceINSt7__cxx1112basic_stringItNS_20string16_char_traitsESaItEEEE5beginEv(ptr noundef nonnull align 8 dereferenceable(16) %10)
  %35 = call noundef ptr @_ZNK4base16BasicStringPieceINSt7__cxx1112basic_stringItNS_20string16_char_traitsESaItEEEE3endEv(ptr noundef nonnull align 8 dereferenceable(16) %10)
  %36 = call noundef ptr @_ZNK4base16BasicStringPieceINSt7__cxx1112basic_stringItNS_20string16_char_traitsESaItEEEE5beginEv(ptr noundef nonnull align 8 dereferenceable(16) %8)
  %37 = call noundef zeroext i1 @_ZSt5equalIPKtS1_N4base27CaseInsensitiveCompareASCIIItEEEbT_S5_T0_T1_(ptr noundef %34, ptr noundef %35, ptr noundef %36)
  store i1 %37, ptr %6, align 1
  store i32 1, ptr %11, align 4
  br label %39

38:                                               ; preds = %20
  store i1 false, ptr %6, align 1
  store i32 1, ptr %11, align 4
  br label %39

39:                                               ; preds = %38, %33, %31
  call void @llvm.lifetime.end.p0(i64 16, ptr %10) #17
  br label %40

40:                                               ; preds = %39, %19
  %41 = load i1, ptr %6, align 1
  ret i1 %41
}

; Function Attrs: mustprogress uwtable
define noundef zeroext i1 @_ZN4base8EndsWithENS_16BasicStringPieceINSt7__cxx1112basic_stringItNS_20string16_char_traitsESaItEEEEES6_NS_11CompareCaseE(ptr %0, i64 %1, ptr %2, i64 %3, i32 noundef %4) #3 {
  %6 = alloca %"class.base::BasicStringPiece.0", align 8
  %7 = alloca %"class.base::BasicStringPiece.0", align 8
  %8 = alloca i32, align 4
  %9 = alloca %"class.base::BasicStringPiece.0", align 8
  %10 = alloca %"class.base::BasicStringPiece.0", align 8
  %11 = getelementptr inbounds nuw { ptr, i64 }, ptr %6, i32 0, i32 0
  store ptr %0, ptr %11, align 8
  %12 = getelementptr inbounds nuw { ptr, i64 }, ptr %6, i32 0, i32 1
  store i64 %1, ptr %12, align 8
  %13 = getelementptr inbounds nuw { ptr, i64 }, ptr %7, i32 0, i32 0
  store ptr %2, ptr %13, align 8
  %14 = getelementptr inbounds nuw { ptr, i64 }, ptr %7, i32 0, i32 1
  store i64 %3, ptr %14, align 8
  store i32 %4, ptr %8, align 4, !tbaa !86
  call void @llvm.memcpy.p0.p0.i64(ptr align 8 %9, ptr align 8 %6, i64 16, i1 false), !tbaa.struct !23
  call void @llvm.memcpy.p0.p0.i64(ptr align 8 %10, ptr align 8 %7, i64 16, i1 false), !tbaa.struct !23
  %15 = load i32, ptr %8, align 4, !tbaa !86
  %16 = getelementptr inbounds nuw { ptr, i64 }, ptr %9, i32 0, i32 0
  %17 = load ptr, ptr %16, align 8
  %18 = getelementptr inbounds nuw { ptr, i64 }, ptr %9, i32 0, i32 1
  %19 = load i64, ptr %18, align 8
  %20 = getelementptr inbounds nuw { ptr, i64 }, ptr %10, i32 0, i32 0
  %21 = load ptr, ptr %20, align 8
  %22 = getelementptr inbounds nuw { ptr, i64 }, ptr %10, i32 0, i32 1
  %23 = load i64, ptr %22, align 8
  %24 = call noundef zeroext i1 @_ZN4base9EndsWithTINSt7__cxx1112basic_stringItNS_20string16_char_traitsESaItEEEEEbNS_16BasicStringPieceIT_EES8_NS_11CompareCaseE(ptr %17, i64 %19, ptr %21, i64 %23, i32 noundef %15)
  ret i1 %24
}