; Function Attrs: mustprogress uwtable
define noundef zeroext i1 @_ZN4base8EndsWithENS_16BasicStringPieceINSt7__cxx1112basic_stringItNS_20string16_char_traitsESaItEEEEES6_NS_11CompareCaseE(ptr %0, i64 %1, ptr %2, i64 %3, i32 noundef %4) local_unnamed_addr #3 {
  %6 = alloca %"class.base::BasicStringPiece.0", align 8
  call void @llvm.lifetime.start.p0(i64 16, ptr nonnull %6)
  store ptr %0, ptr %6, align 8
  %7 = getelementptr inbounds nuw i8, ptr %6, i64 8
  store i64 %1, ptr %7, align 8
  %8 = icmp ugt i64 %3, %1
  br i1 %8, label %_ZN4base9EndsWithTINSt7__cxx1112basic_stringItNS_20string16_char_traitsESaItEEEEEbNS_16BasicStringPieceIT_EES8_NS_11CompareCaseE.exit, label %9

9:                                                ; preds = %5
  %10 = sub nuw i64 %1, %3
  %11 = call { ptr, i64 } @_ZN4base8internal6substrERKNS_16BasicStringPieceINSt7__cxx1112basic_stringItNS_20string16_char_traitsESaItEEEEEmm(ptr noundef nonnull align 8 dereferenceable(16) %6, i64 noundef %10, i64 noundef %3)
  %12 = extractvalue { ptr, i64 } %11, 0
  %13 = extractvalue { ptr, i64 } %11, 1
  switch i32 %4, label %_ZN4base9EndsWithTINSt7__cxx1112basic_stringItNS_20string16_char_traitsESaItEEEEEbNS_16BasicStringPieceIT_EES8_NS_11CompareCaseE.exit [
    i32 0, label %14
    i32 1, label %18
  ]

14:                                               ; preds = %9
  %.not.i.i = icmp eq i64 %13, %3
  br i1 %.not.i.i, label %15, label %_ZN4base9EndsWithTINSt7__cxx1112basic_stringItNS_20string16_char_traitsESaItEEEEEbNS_16BasicStringPieceIT_EES8_NS_11CompareCaseE.exit

15:                                               ; preds = %14
  %16 = call noundef i32 @_ZN4base9c16memcmpEPKtS1_m(ptr noundef %12, ptr noundef %2, i64 noundef %3)
  %17 = icmp eq i32 %16, 0
  br label %_ZN4base9EndsWithTINSt7__cxx1112basic_stringItNS_20string16_char_traitsESaItEEEEEbNS_16BasicStringPieceIT_EES8_NS_11CompareCaseE.exit

18:                                               ; preds = %9
  %19 = getelementptr inbounds nuw i16, ptr %12, i64 %13
  %.not9.i.i = icmp eq i64 %13, 0
  br i1 %.not9.i.i, label %_ZN4base9EndsWithTINSt7__cxx1112basic_stringItNS_20string16_char_traitsESaItEEEEEbNS_16BasicStringPieceIT_EES8_NS_11CompareCaseE.exit, label %.lr.ph.i.i

.lr.ph.i.i:                                       ; preds = %18, %.lr.ph.i.i
  %.011.i.i = phi ptr [ %30, %.lr.ph.i.i ], [ %2, %18 ]
  %.0810.i.i = phi ptr [ %29, %.lr.ph.i.i ], [ %12, %18 ]
  %20 = load i16, ptr %.0810.i.i, align 2, !tbaa !31
  %21 = load i16, ptr %.011.i.i, align 2, !tbaa !31
  %22 = add i16 %20, -65
  %or.cond.i.i.i.i = icmp ult i16 %22, 26
  %23 = add nuw nsw i16 %20, 32
  %24 = select i1 %or.cond.i.i.i.i, i16 %23, i16 %20
  %25 = add i16 %21, -65
  %or.cond.i2.i.i.i = icmp ult i16 %25, 26
  %26 = add nuw nsw i16 %21, 32
  %27 = select i1 %or.cond.i2.i.i.i, i16 %26, i16 %21
  %28 = icmp eq i16 %24, %27
  %29 = getelementptr inbounds nuw i8, ptr %.0810.i.i, i64 2
  %30 = getelementptr inbounds nuw i8, ptr %.011.i.i, i64 2
  %.not.i1.i = icmp ne ptr %29, %19
  %or.cond.not = select i1 %28, i1 %.not.i1.i, i1 false
  br i1 %or.cond.not, label %.lr.ph.i.i, label %_ZN4base9EndsWithTINSt7__cxx1112basic_stringItNS_20string16_char_traitsESaItEEEEEbNS_16BasicStringPieceIT_EES8_NS_11CompareCaseE.exit, !llvm.loop !99

_ZN4base9EndsWithTINSt7__cxx1112basic_stringItNS_20string16_char_traitsESaItEEEEEbNS_16BasicStringPieceIT_EES8_NS_11CompareCaseE.exit: ; preds = %.lr.ph.i.i, %5, %9, %14, %15, %18
  %.0.i = phi i1 [ false, %5 ], [ false, %9 ], [ %17, %15 ], [ false, %14 ], [ true, %18 ], [ %28, %.lr.ph.i.i ]
  call void @llvm.lifetime.end.p0(i64 16, ptr nonnull %6)
  ret i1 %.0.i
}